target datalayout = "e-m:e-p270:32:32-p271:32:32-p272:64:64-i64:64-i128:128-f80:128-n8:16:32:64-S128"
target triple = "x86_64-pc-linux-gnu"

%struct._Unwind_Exception = type { i64, ptr, i64, i64 }
%"struct.__cxxabiv1::__cxa_exception" = type { ptr, i64, ptr, ptr, ptr, ptr, ptr, i32, i32, ptr, ptr, ptr, ptr, %struct._Unwind_Exception }
%"struct.__cxxabiv1::__cxa_eh_globals" = type { ptr, i32 }
%"struct.__cxxabiv1::__cxa_dependent_exception" = type { ptr, ptr, ptr, ptr, ptr, ptr, ptr, i32, i32, ptr, ptr, ptr, ptr, %struct._Unwind_Exception }

; Function Attrs: mustprogress nounwind uwtable
define hidden noundef i64 @_ZN10__cxxabiv119__getExceptionClassEPK17_Unwind_Exception(ptr noundef %0) #0 {
  %2 = alloca ptr, align 8
  %3 = alloca i64, align 8
  store ptr %0, ptr %2, align 8, !tbaa !4
  call void @llvm.lifetime.start.p0(i64 8, ptr %3) #14
  %4 = load ptr, ptr %2, align 8, !tbaa !4
  %5 = getelementptr inbounds nuw %struct._Unwind_Exception, ptr %4, i32 0, i32 0
  call void @llvm.memcpy.p0.p0.i64(ptr align 8 %3, ptr align 16 %5, i64 8, i1 false)
  %6 = load i64, ptr %3, align 8, !tbaa !9
  call void @llvm.lifetime.end.p0(i64 8, ptr %3) #14
  ret i64 %6
}

; Function Attrs: inlinehint mustprogress nounwind uwtable
define internal noundef ptr @_ZN10__cxxabiv1L45cxa_exception_from_exception_unwind_exceptionEP17_Unwind_Exception(ptr noundef %0) #8 {
  %2 = alloca ptr, align 8
  store ptr %0, ptr %2, align 8, !tbaa !4
  %3 = load ptr, ptr %2, align 8, !tbaa !4
  %4 = getelementptr inbounds %struct._Unwind_Exception, ptr %3, i64 1
  %5 = call noundef ptr @_ZN10__cxxabiv1L32cxa_exception_from_thrown_objectEPv(ptr noundef %4)
  ret ptr %5
}

; Function Attrs: mustprogress nounwind uwtable
define hidden noundef zeroext i1 @_ZN10__cxxabiv121__isOurExceptionClassEPK17_Unwind_Exception(ptr noundef %0) #0 {
  %2 = alloca ptr, align 8
  store ptr %0, ptr %2, align 8, !tbaa !4
  %3 = load ptr, ptr %2, align 8, !tbaa !4
  %4 = call noundef i64 @_ZN10__cxxabiv119__getExceptionClassEPK17_Unwind_Exception(ptr noundef %3)
  %5 = and i64 %4, -256
  %6 = icmp eq i64 %5, 4849336966747728640
  ret i1 %6
}

; Function Attrs: mustprogress nounwind uwtable
define hidden void @_ZN10__cxxabiv119__setExceptionClassEP17_Unwind_Exceptionm(ptr noundef %0, i64 noundef %1) #0 {
  %3 = alloca ptr, align 8
  %4 = alloca i64, align 8
  store ptr %0, ptr %3, align 8, !tbaa !4
  store i64 %1, ptr %4, align 8, !tbaa !9
  %5 = load ptr, ptr %3, align 8, !tbaa !4
  %6 = getelementptr inbounds nuw %struct._Unwind_Exception, ptr %5, i32 0, i32 0
  call void @llvm.memcpy.p0.p0.i64(ptr align 16 %6, ptr align 8 %4, i64 8, i1 false)
  ret void
}

; Function Attrs: inlinehint mustprogress nounwind uwtable
define internal noundef i64 @_ZNSt3__112_GLOBAL__N_119__libcpp_atomic_addB8ne210000ImmEET_PS2_T0_i(ptr noundef %0, i64 noundef %1, i32 noundef %2) #8 {
  %4 = alloca ptr, align 8
  %5 = alloca i64, align 8
  %6 = alloca i32, align 4
  %7 = alloca i64, align 8
  %8 = alloca i64, align 8
  store ptr %0, ptr %4, align 8, !tbaa !45
  store i64 %1, ptr %5, align 8, !tbaa !9
  store i32 %2, ptr %6, align 4, !tbaa !47
  %9 = load ptr, ptr %4, align 8, !tbaa !45
  %10 = load i32, ptr %6, align 4, !tbaa !47
  %11 = load i64, ptr %5, align 8, !tbaa !9
  store i64 %11, ptr %7, align 8, !tbaa !9
  switch i32 %10, label %12 [
    i32 1, label %16
    i32 2, label %16
    i32 3, label %20
    i32 4, label %24
    i32 5, label %28
  ]

12:                                               ; preds = %3
  %13 = load i64, ptr %7, align 8
  %14 = atomicrmw add ptr %9, i64 %13 monotonic, align 8
  %15 = add i64 %14, %13
  store i64 %15, ptr %8, align 8
  br label %32

16:                                               ; preds = %3, %3
  %17 = load i64, ptr %7, align 8
  %18 = atomicrmw add ptr %9, i64 %17 acquire, align 8
  %19 = add i64 %18, %17
  store i64 %19, ptr %8, align 8
  br label %32

20:                                               ; preds = %3
  %21 = load i64, ptr %7, align 8
  %22 = atomicrmw add ptr %9, i64 %21 release, align 8
  %23 = add i64 %22, %21
  store i64 %23, ptr %8, align 8
  br label %32

24:                                               ; preds = %3
  %25 = load i64, ptr %7, align 8
  %26 = atomicrmw add ptr %9, i64 %25 acq_rel, align 8
  %27 = add i64 %26, %25
  store i64 %27, ptr %8, align 8
  br label %32

28:                                               ; preds = %3
  %29 = load i64, ptr %7, align 8
  %30 = atomicrmw add ptr %9, i64 %29 seq_cst, align 8
  %31 = add i64 %30, %29
  store i64 %31, ptr %8, align 8
  br label %32

32:                                               ; preds = %28, %24, %20, %16, %12
  %33 = load i64, ptr %8, align 8, !tbaa !9
  ret i64 %33
}

; Function Attrs: mustprogress nounwind uwtable
define dso_local ptr @__cxa_begin_catch(ptr %0) #5 personality ptr @__gxx_personality_v0 {
  %2 = alloca ptr, align 8
  %3 = alloca ptr, align 8
  %4 = alloca ptr, align 8
  %5 = alloca i8, align 1
  %6 = alloca ptr, align 8
  %7 = alloca ptr, align 8
  %8 = alloca i32, align 4
  store ptr %0, ptr %3, align 8, !tbaa !15
  call void @llvm.lifetime.start.p0(i64 8, ptr %4) #14
  %9 = load ptr, ptr %3, align 8, !tbaa !15
  store ptr %9, ptr %4, align 8, !tbaa !4
  call void @llvm.lifetime.start.p0(i64 1, ptr %5) #14
  %10 = load ptr, ptr %4, align 8, !tbaa !4
  %11 = call noundef zeroext i1 @_ZN10__cxxabiv121__isOurExceptionClassEPK17_Unwind_Exception(ptr noundef %10)
  %12 = zext i1 %11 to i8
  store i8 %12, ptr %5, align 1, !tbaa !16
  call void @llvm.lifetime.start.p0(i64 8, ptr %6) #14
  %13 = invoke ptr @__cxa_get_globals()
          to label %14 unwind label %76

14:                                               ; preds = %1
  store ptr %13, ptr %6, align 8, !tbaa !18
  call void @llvm.lifetime.start.p0(i64 8, ptr %7) #14
  %15 = load ptr, ptr %4, align 8, !tbaa !4
  %16 = invoke noundef ptr @_ZN10__cxxabiv1L45cxa_exception_from_exception_unwind_exceptionEP17_Unwind_Exception(ptr noundef %15)
          to label %17 unwind label %76

17:                                               ; preds = %14
  store ptr %16, ptr %7, align 8, !tbaa !13
  %18 = load i8, ptr %5, align 1, !tbaa !16, !range !20, !noundef !21
  %19 = trunc i8 %18 to i1
  br i1 %19, label %20, label %62

20:                                               ; preds = %17
  %21 = load ptr, ptr %7, align 8, !tbaa !13
  %22 = getelementptr inbounds nuw %"struct.__cxxabiv1::__cxa_exception", ptr %21, i32 0, i32 7
  %23 = load i32, ptr %22, align 8, !tbaa !22
  %24 = icmp slt i32 %23, 0
  br i1 %24, label %25, label %31

25:                                               ; preds = %20
  %26 = load ptr, ptr %7, align 8, !tbaa !13
  %27 = getelementptr inbounds nuw %"struct.__cxxabiv1::__cxa_exception", ptr %26, i32 0, i32 7
  %28 = load i32, ptr %27, align 8, !tbaa !22
  %29 = sub nsw i32 0, %28
  %30 = add nsw i32 %29, 1
  br label %36

31:                                               ; preds = %20
  %32 = load ptr, ptr %7, align 8, !tbaa !13
  %33 = getelementptr inbounds nuw %"struct.__cxxabiv1::__cxa_exception", ptr %32, i32 0, i32 7
  %34 = load i32, ptr %33, align 8, !tbaa !22
  %35 = add nsw i32 %34, 1
  br label %36

36:                                               ; preds = %31, %25
  %37 = phi i32 [ %30, %25 ], [ %35, %31 ]
  %38 = load ptr, ptr %7, align 8, !tbaa !13
  %39 = getelementptr inbounds nuw %"struct.__cxxabiv1::__cxa_exception", ptr %38, i32 0, i32 7
  store i32 %37, ptr %39, align 8, !tbaa !22
  %40 = load ptr, ptr %7, align 8, !tbaa !13
  %41 = load ptr, ptr %6, align 8, !tbaa !18
  %42 = getelementptr inbounds nuw %"struct.__cxxabiv1::__cxa_eh_globals", ptr %41, i32 0, i32 0
  %43 = load ptr, ptr %42, align 8, !tbaa !27
  %44 = icmp ne ptr %40, %43
  br i1 %44, label %45, label %54

45:                                               ; preds = %36
  %46 = load ptr, ptr %6, align 8, !tbaa !18
  %47 = getelementptr inbounds nuw %"struct.__cxxabiv1::__cxa_eh_globals", ptr %46, i32 0, i32 0
  %48 = load ptr, ptr %47, align 8, !tbaa !27
  %49 = load ptr, ptr %7, align 8, !tbaa !13
  %50 = getelementptr inbounds nuw %"struct.__cxxabiv1::__cxa_exception", ptr %49, i32 0, i32 6
  store ptr %48, ptr %50, align 16, !tbaa !29
  %51 = load ptr, ptr %7, align 8, !tbaa !13
  %52 = load ptr, ptr %6, align 8, !tbaa !18
  %53 = getelementptr inbounds nuw %"struct.__cxxabiv1::__cxa_eh_globals", ptr %52, i32 0, i32 0
  store ptr %51, ptr %53, align 8, !tbaa !27
  br label %54

54:                                               ; preds = %45, %36
  %55 = load ptr, ptr %6, align 8, !tbaa !18
  %56 = getelementptr inbounds nuw %"struct.__cxxabiv1::__cxa_eh_globals", ptr %55, i32 0, i32 1
  %57 = load i32, ptr %56, align 8, !tbaa !30
  %58 = sub i32 %57, 1
  store i32 %58, ptr %56, align 8, !tbaa !30
  %59 = load ptr, ptr %7, align 8, !tbaa !13
  %60 = getelementptr inbounds nuw %"struct.__cxxabiv1::__cxa_exception", ptr %59, i32 0, i32 12
  %61 = load ptr, ptr %60, align 8, !tbaa !31
  store ptr %61, ptr %2, align 8
  store i32 1, ptr %8, align 4
  br label %74

62:                                               ; preds = %17
  %63 = load ptr, ptr %6, align 8, !tbaa !18
  %64 = getelementptr inbounds nuw %"struct.__cxxabiv1::__cxa_eh_globals", ptr %63, i32 0, i32 0
  %65 = load ptr, ptr %64, align 8, !tbaa !27
  %66 = icmp ne ptr %65, null
  br i1 %66, label %67, label %68

67:                                               ; preds = %62
  call void @_ZSt9terminatev() #15
  unreachable

68:                                               ; preds = %62
  %69 = load ptr, ptr %7, align 8, !tbaa !13
  %70 = load ptr, ptr %6, align 8, !tbaa !18
  %71 = getelementptr inbounds nuw %"struct.__cxxabiv1::__cxa_eh_globals", ptr %70, i32 0, i32 0
  store ptr %69, ptr %71, align 8, !tbaa !27
  %72 = load ptr, ptr %4, align 8, !tbaa !4
  %73 = getelementptr inbounds %struct._Unwind_Exception, ptr %72, i64 1
  store ptr %73, ptr %2, align 8
  store i32 1, ptr %8, align 4
  br label %74

74:                                               ; preds = %68, %54
  call void @llvm.lifetime.end.p0(i64 8, ptr %7) #14
  call void @llvm.lifetime.end.p0(i64 8, ptr %6) #14
  call void @llvm.lifetime.end.p0(i64 1, ptr %5) #14
  call void @llvm.lifetime.end.p0(i64 8, ptr %4) #14
  %75 = load ptr, ptr %2, align 8
  ret ptr %75

76:                                               ; preds = %14, %1
  %77 = landingpad { ptr, i32 }
          catch ptr null
  %78 = extractvalue { ptr, i32 } %77, 0
  call void @__clang_call_terminate(ptr %78) #15
  unreachable
}

; Function Attrs: mustprogress nounwind uwtable
define internal void @_ZN10__cxxabiv1L26setDependentExceptionClassEP17_Unwind_Exception(ptr noundef %0) #0 {
  %2 = alloca ptr, align 8
  store ptr %0, ptr %2, align 8, !tbaa !4
  %3 = load ptr, ptr %2, align 8, !tbaa !4
  call void @_ZN10__cxxabiv119__setExceptionClassEP17_Unwind_Exceptionm(ptr noundef %3, i64 noundef 4849336966747728641)
  ret void
}

; Function Attrs: mustprogress nounwind uwtable
define dso_local void @__cxa_increment_exception_refcount(ptr noundef %0) #0 personality ptr @__gxx_personality_v0 {
  %2 = alloca ptr, align 8
  %3 = alloca ptr, align 8
  store ptr %0, ptr %2, align 8, !tbaa !15
  %4 = load ptr, ptr %2, align 8, !tbaa !15
  %5 = icmp ne ptr %4, null
  br i1 %5, label %6, label %14

6:                                                ; preds = %1
  call void @llvm.lifetime.start.p0(i64 8, ptr %3) #14
  %7 = load ptr, ptr %2, align 8, !tbaa !15
  %8 = invoke noundef ptr @_ZN10__cxxabiv1L32cxa_exception_from_thrown_objectEPv(ptr noundef %7)
          to label %9 unwind label %15

9:                                                ; preds = %6
  store ptr %8, ptr %3, align 8, !tbaa !13
  %10 = load ptr, ptr %3, align 8, !tbaa !13
  %11 = getelementptr inbounds nuw %"struct.__cxxabiv1::__cxa_exception", ptr %10, i32 0, i32 1
  %12 = invoke noundef i64 @_ZNSt3__112_GLOBAL__N_119__libcpp_atomic_addB8ne210000ImmEET_PS2_T0_i(ptr noundef %11, i64 noundef 1, i32 noundef 5)
          to label %13 unwind label %15

13:                                               ; preds = %9
  call void @llvm.lifetime.end.p0(i64 8, ptr %3) #14
  br label %14

14:                                               ; preds = %13, %1
  ret void

15:                                               ; preds = %9, %6
  %16 = landingpad { ptr, i32 }
          catch ptr null
  %17 = extractvalue { ptr, i32 } %16, 0
  call void @__clang_call_terminate(ptr %17) #15
  unreachable
}

; Function Attrs: mustprogress uwtable
define dso_local ptr @__cxa_allocate_dependent_exception() #10 {
  %1 = alloca i64, align 8
  %2 = alloca ptr, align 8
  call void @llvm.lifetime.start.p0(i64 8, ptr %1) #14
  store i64 128, ptr %1, align 8, !tbaa !9
  call void @llvm.lifetime.start.p0(i64 8, ptr %2) #14
  %3 = load i64, ptr %1, align 8, !tbaa !9
  %4 = call noundef ptr @_ZN10__cxxabiv130__aligned_malloc_with_fallbackEm(i64 noundef %3)
  store ptr %4, ptr %2, align 8, !tbaa !15
  %5 = load ptr, ptr %2, align 8, !tbaa !15
  %6 = icmp eq ptr null, %5
  br i1 %6, label %7, label %8

7:                                                ; preds = %0
  call void @_ZSt9terminatev() #15
  unreachable

8:                                                ; preds = %0
  %9 = load ptr, ptr %2, align 8, !tbaa !15
  %10 = load i64, ptr %1, align 8, !tbaa !9
  call void @llvm.memset.p0.i64(ptr align 1 %9, i8 0, i64 %10, i1 false)
  %11 = load ptr, ptr %2, align 8, !tbaa !15
  call void @llvm.lifetime.end.p0(i64 8, ptr %2) #14
  call void @llvm.lifetime.end.p0(i64 8, ptr %1) #14
  ret ptr %11
}

; Function Attrs: inlinehint mustprogress nounwind uwtable
define internal noundef ptr @_ZN10__cxxabiv1L32cxa_exception_from_thrown_objectEPv(ptr noundef %0) #8 {
  %2 = alloca ptr, align 8
  store ptr %0, ptr %2, align 8, !tbaa !15
  %3 = load ptr, ptr %2, align 8, !tbaa !15
  %4 = getelementptr inbounds %"struct.__cxxabiv1::__cxa_exception", ptr %3, i64 -1
  ret ptr %4
}

; Function Attrs: mustprogress uwtable
define dso_local void @__cxa_rethrow_primary_exception(ptr noundef %0) #10 {
  %2 = alloca ptr, align 8
  %3 = alloca ptr, align 8
  %4 = alloca ptr, align 8
  store ptr %0, ptr %2, align 8, !tbaa !15
  %5 = load ptr, ptr %2, align 8, !tbaa !15
  %6 = icmp ne ptr %5, null
  br i1 %6, label %7, label %41

7:                                                ; preds = %1
  call void @llvm.lifetime.start.p0(i64 8, ptr %3) #14
  %8 = load ptr, ptr %2, align 8, !tbaa !15
  %9 = call noundef ptr @_ZN10__cxxabiv1L32cxa_exception_from_thrown_objectEPv(ptr noundef %8)
  store ptr %9, ptr %3, align 8, !tbaa !13
  call void @llvm.lifetime.start.p0(i64 8, ptr %4) #14
  %10 = call ptr @__cxa_allocate_dependent_exception()
  store ptr %10, ptr %4, align 8, !tbaa !41
  %11 = load ptr, ptr %2, align 8, !tbaa !15
  %12 = load ptr, ptr %4, align 8, !tbaa !41
  %13 = getelementptr inbounds nuw %"struct.__cxxabiv1::__cxa_dependent_exception", ptr %12, i32 0, i32 1
  store ptr %11, ptr %13, align 8, !tbaa !43
  %14 = load ptr, ptr %2, align 8, !tbaa !15
  call void @__cxa_increment_exception_refcount(ptr noundef %14) #14
  %15 = load ptr, ptr %3, align 8, !tbaa !13
  %16 = getelementptr inbounds nuw %"struct.__cxxabiv1::__cxa_exception", ptr %15, i32 0, i32 2
  %17 = load ptr, ptr %16, align 16, !tbaa !36
  %18 = load ptr, ptr %4, align 8, !tbaa !41
  %19 = getelementptr inbounds nuw %"struct.__cxxabiv1::__cxa_dependent_exception", ptr %18, i32 0, i32 2
  store ptr %17, ptr %19, align 16, !tbaa !48
  %20 = call noundef ptr @_ZSt14get_unexpectedv() #14
  %21 = load ptr, ptr %4, align 8, !tbaa !41
  %22 = getelementptr inbounds nuw %"struct.__cxxabiv1::__cxa_dependent_exception", ptr %21, i32 0, i32 4
  store ptr %20, ptr %22, align 16, !tbaa !49
  %23 = call noundef ptr @_ZSt13get_terminatev() #14
  %24 = load ptr, ptr %4, align 8, !tbaa !41
  %25 = getelementptr inbounds nuw %"struct.__cxxabiv1::__cxa_dependent_exception", ptr %24, i32 0, i32 5
  store ptr %23, ptr %25, align 8, !tbaa !50
  %26 = load ptr, ptr %4, align 8, !tbaa !41
  %27 = getelementptr inbounds nuw %"struct.__cxxabiv1::__cxa_dependent_exception", ptr %26, i32 0, i32 13
  call void @_ZN10__cxxabiv1L26setDependentExceptionClassEP17_Unwind_Exception(ptr noundef %27)
  %28 = call ptr @__cxa_get_globals()
  %29 = getelementptr inbounds nuw %"struct.__cxxabiv1::__cxa_eh_globals", ptr %28, i32 0, i32 1
  %30 = load i32, ptr %29, align 8, !tbaa !30
  %31 = add i32 %30, 1
  store i32 %31, ptr %29, align 8, !tbaa !30
  %32 = load ptr, ptr %4, align 8, !tbaa !41
  %33 = getelementptr inbounds nuw %"struct.__cxxabiv1::__cxa_dependent_exception", ptr %32, i32 0, i32 13
  %34 = getelementptr inbounds nuw %struct._Unwind_Exception, ptr %33, i32 0, i32 1
  store ptr @_ZN10__cxxabiv1L27dependent_exception_cleanupE19_Unwind_Reason_CodeP17_Unwind_Exception, ptr %34, align 8, !tbaa !51
  %35 = load ptr, ptr %4, align 8, !tbaa !41
  %36 = getelementptr inbounds nuw %"struct.__cxxabiv1::__cxa_dependent_exception", ptr %35, i32 0, i32 13
  %37 = call i32 @_Unwind_RaiseException(ptr noundef %36)
  %38 = load ptr, ptr %4, align 8, !tbaa !41
  %39 = getelementptr inbounds nuw %"struct.__cxxabiv1::__cxa_dependent_exception", ptr %38, i32 0, i32 13
  %40 = call ptr @__cxa_begin_catch(ptr noundef %39) #14
  call void @llvm.lifetime.end.p0(i64 8, ptr %4) #14
  call void @llvm.lifetime.end.p0(i64 8, ptr %3) #14
  br label %41

41:                                               ; preds = %7, %1
  ret void
}