; Function Attrs: mustprogress uwtable
define dso_local void @__cxa_rethrow_primary_exception(ptr noundef %0) local_unnamed_addr #9 personality ptr @__gxx_personality_v0 {
  %.not = icmp eq ptr %0, null
  br i1 %.not, label %__cxa_begin_catch.exit, label %2

2:                                                ; preds = %1
  %3 = tail call noundef ptr @_ZN10__cxxabiv130__aligned_malloc_with_fallbackEm(i64 noundef 128)
  %4 = icmp eq ptr %3, null
  br i1 %4, label %5, label %__cxa_increment_exception_refcount.exit

5:                                                ; preds = %2
  tail call void @_ZSt9terminatev() #16
  unreachable

__cxa_increment_exception_refcount.exit:          ; preds = %2
  tail call void @llvm.memset.p0.i64(ptr noundef nonnull align 1 dereferenceable(128) %3, i8 0, i64 128, i1 false)
  %6 = getelementptr inbounds nuw i8, ptr %3, i64 8
  store ptr %0, ptr %6, align 8, !tbaa !26
  %7 = getelementptr inbounds i8, ptr %0, i64 -120
  %8 = atomicrmw add ptr %7, i64 1 seq_cst, align 8
  %9 = getelementptr inbounds i8, ptr %0, i64 -112
  %10 = load ptr, ptr %9, align 16, !tbaa !23
  %11 = getelementptr inbounds nuw i8, ptr %3, i64 16
  store ptr %10, ptr %11, align 16, !tbaa !28
  %12 = tail call noundef ptr @_ZSt14get_unexpectedv() #17
  %13 = getelementptr inbounds nuw i8, ptr %3, i64 32
  store ptr %12, ptr %13, align 16, !tbaa !29
  %14 = tail call noundef ptr @_ZSt13get_terminatev() #17
  %15 = getelementptr inbounds nuw i8, ptr %3, i64 40
  store ptr %14, ptr %15, align 8, !tbaa !30
  %16 = getelementptr inbounds nuw i8, ptr %3, i64 96
  store i64 4849336966747728641, ptr %16, align 16
  %17 = tail call ptr @__cxa_get_globals()
  %18 = getelementptr inbounds nuw i8, ptr %17, i64 8
  %19 = load i32, ptr %18, align 8, !tbaa !18
  %20 = add i32 %19, 1
  store i32 %20, ptr %18, align 8, !tbaa !18
  %21 = getelementptr inbounds nuw i8, ptr %3, i64 104
  store ptr @_ZN10__cxxabiv1L27dependent_exception_cleanupE19_Unwind_Reason_CodeP17_Unwind_Exception, ptr %21, align 8, !tbaa !31
  %22 = tail call i32 @_Unwind_RaiseException(ptr noundef nonnull %16)
  %.0.copyload.i.i.i = load i64, ptr %16, align 16
  %23 = invoke ptr @__cxa_get_globals()
          to label %24 unwind label %42

24:                                               ; preds = %__cxa_increment_exception_refcount.exit
  %25 = and i64 %.0.copyload.i.i.i, -256
  %26 = icmp eq i64 %25, 4849336966747728640
  br i1 %26, label %27, label %38

27:                                               ; preds = %24
  %28 = getelementptr inbounds nuw i8, ptr %3, i64 56
  %29 = load i32, ptr %28, align 8, !tbaa !4
  %.p.i = tail call i32 @llvm.abs.i32(i32 %29, i1 false)
  %30 = add nuw i32 %.p.i, 1
  store i32 %30, ptr %28, align 8, !tbaa !4
  %31 = load ptr, ptr %23, align 8, !tbaa !15
  %.not23.i = icmp eq ptr %3, %31
  br i1 %.not23.i, label %34, label %32

32:                                               ; preds = %27
  %33 = getelementptr inbounds nuw i8, ptr %3, i64 48
  store ptr %31, ptr %33, align 16, !tbaa !17
  store ptr %3, ptr %23, align 8, !tbaa !15
  br label %34

34:                                               ; preds = %32, %27
  %35 = getelementptr inbounds nuw i8, ptr %23, i64 8
  %36 = load i32, ptr %35, align 8, !tbaa !18
  %37 = add i32 %36, -1
  store i32 %37, ptr %35, align 8, !tbaa !18
  br label %__cxa_begin_catch.exit

38:                                               ; preds = %24
  %39 = load ptr, ptr %23, align 8, !tbaa !15
  %.not.i13 = icmp eq ptr %39, null
  br i1 %.not.i13, label %41, label %40

40:                                               ; preds = %38
  tail call void @_ZSt9terminatev() #16
  unreachable

41:                                               ; preds = %38
  store ptr %3, ptr %23, align 8, !tbaa !15
  br label %__cxa_begin_catch.exit

42:                                               ; preds = %__cxa_increment_exception_refcount.exit
  %43 = landingpad { ptr, i32 }
          catch ptr null
  %44 = extractvalue { ptr, i32 } %43, 0
  tail call void @__clang_call_terminate(ptr %44) #19
  unreachable

__cxa_begin_catch.exit:                           ; preds = %41, %34, %1
  ret void
}